target datalayout = "e-m:e-p270:32:32-p271:32:32-p272:64:64-i64:64-i128:128-f80:128-n8:16:32:64-S128"
target triple = "x86_64-pc-linux-gnu"

%struct.ARKodeMRIStepMemRec = type { ptr, ptr, i32, i32, i32, i32, i32, ptr, ptr, i32, i32, i32, ptr, i32, i32, i32, i32, i32, ptr, ptr, ptr, ptr, ptr, ptr, ptr, i32, ptr, i32, ptr, double, double, double, double, i32, double, double, double, double, double, double, i32, i64, i32, i32, i32, ptr, ptr, ptr, ptr, ptr, ptr, ptr, ptr, ptr, double, double, double, i64, i64, i64, i64, i64, i64, i32, i32, i32, double, double, ptr, i32, ptr, ptr }
%struct.ARKodeMemRec = type { ptr, double, ptr, i32, i32, double, double, ptr, i32, double, ptr, i32, i32, ptr, ptr, i32, ptr, ptr, i32, ptr, ptr, ptr, ptr, ptr, ptr, ptr, ptr, ptr, ptr, ptr, ptr, ptr, ptr, ptr, i32, ptr, ptr, i32, ptr, i32, ptr, ptr, ptr, ptr, ptr, ptr, ptr, ptr, ptr, ptr, ptr, ptr, ptr, ptr, ptr, ptr, ptr, ptr, ptr, ptr, ptr, ptr, ptr, ptr, ptr, ptr, i32, ptr, ptr, ptr, ptr, ptr, ptr, ptr, i32, ptr, ptr, ptr, i32, ptr, ptr, ptr, ptr, ptr, ptr, ptr, i32, i32, i32, i32, double, double, double, double, double, double, double, double, double, double, i32, ptr, i64, i32, i32, i32, i32, i64, i64, i32, i64, i64, i64, i64, i64, i64, i64, double, double, double, double, double, i32, double, double, i32, i32, i32, i32, i32, i32, i32, i32, ptr, i32, ptr, ptr, ptr, ptr, i32, i32, i32 }

@__func__.mriStep_SetOrder = private unnamed_addr constant [17 x i8] c"mriStep_SetOrder\00", align 1

; Function Attrs: nounwind uwtable
define i32 @mriStep_SetOrder(ptr noundef %0, i32 noundef %1) #0 {
  %3 = alloca i32, align 4
  %4 = alloca ptr, align 8
  %5 = alloca i32, align 4
  %6 = alloca i32, align 4
  %7 = alloca ptr, align 8
  %8 = alloca i64, align 8
  %9 = alloca i64, align 8
  %10 = alloca i32, align 4
  store ptr %0, ptr %4, align 8, !tbaa !11
  store i32 %1, ptr %5, align 4, !tbaa !9
  call void @llvm.lifetime.start.p0(i64 4, ptr %6) #4
  call void @llvm.lifetime.start.p0(i64 8, ptr %7) #4
  call void @llvm.lifetime.start.p0(i64 8, ptr %8) #4
  call void @llvm.lifetime.start.p0(i64 8, ptr %9) #4
  %11 = load ptr, ptr %4, align 8, !tbaa !11
  %12 = call i32 @mriStep_AccessStepMem(ptr noundef %11, ptr noundef @__func__.mriStep_SetOrder, ptr noundef %7)
  store i32 %12, ptr %6, align 4, !tbaa !9
  %13 = load i32, ptr %6, align 4, !tbaa !9
  %14 = icmp ne i32 %13, 0
  br i1 %14, label %15, label %17

15:                                               ; preds = %2
  %16 = load i32, ptr %6, align 4, !tbaa !9
  store i32 %16, ptr %3, align 4
  store i32 1, ptr %10, align 4
  br label %50

17:                                               ; preds = %2
  %18 = load i32, ptr %5, align 4, !tbaa !9
  %19 = icmp sle i32 %18, 0
  br i1 %19, label %20, label %23

20:                                               ; preds = %17
  %21 = load ptr, ptr %7, align 8, !tbaa !13
  %22 = getelementptr inbounds nuw %struct.ARKodeMRIStepMemRec, ptr %21, i32 0, i32 13
  store i32 3, ptr %22, align 8, !tbaa !25
  br label %27

23:                                               ; preds = %17
  %24 = load i32, ptr %5, align 4, !tbaa !9
  %25 = load ptr, ptr %7, align 8, !tbaa !13
  %26 = getelementptr inbounds nuw %struct.ARKodeMRIStepMemRec, ptr %25, i32 0, i32 13
  store i32 %24, ptr %26, align 8, !tbaa !25
  br label %27

27:                                               ; preds = %23, %20
  %28 = load ptr, ptr %7, align 8, !tbaa !13
  %29 = getelementptr inbounds nuw %struct.ARKodeMRIStepMemRec, ptr %28, i32 0, i32 15
  store i32 0, ptr %29, align 8, !tbaa !15
  %30 = load ptr, ptr %7, align 8, !tbaa !13
  %31 = getelementptr inbounds nuw %struct.ARKodeMRIStepMemRec, ptr %30, i32 0, i32 14
  store i32 0, ptr %31, align 4, !tbaa !26
  %32 = load ptr, ptr %7, align 8, !tbaa !13
  %33 = getelementptr inbounds nuw %struct.ARKodeMRIStepMemRec, ptr %32, i32 0, i32 12
  %34 = load ptr, ptr %33, align 8, !tbaa !27
  call void @MRIStepCoupling_Space(ptr noundef %34, ptr noundef %9, ptr noundef %8)
  %35 = load ptr, ptr %7, align 8, !tbaa !13
  %36 = getelementptr inbounds nuw %struct.ARKodeMRIStepMemRec, ptr %35, i32 0, i32 12
  %37 = load ptr, ptr %36, align 8, !tbaa !27
  call void @MRIStepCoupling_Free(ptr noundef %37)
  %38 = load ptr, ptr %7, align 8, !tbaa !13
  %39 = getelementptr inbounds nuw %struct.ARKodeMRIStepMemRec, ptr %38, i32 0, i32 12
  store ptr null, ptr %39, align 8, !tbaa !27
  %40 = load i64, ptr %9, align 8, !tbaa !28
  %41 = load ptr, ptr %4, align 8, !tbaa !11
  %42 = getelementptr inbounds nuw %struct.ARKodeMemRec, ptr %41, i32 0, i32 116
  %43 = load i64, ptr %42, align 8, !tbaa !29
  %44 = sub nsw i64 %43, %40
  store i64 %44, ptr %42, align 8, !tbaa !29
  %45 = load i64, ptr %8, align 8, !tbaa !28
  %46 = load ptr, ptr %4, align 8, !tbaa !11
  %47 = getelementptr inbounds nuw %struct.ARKodeMemRec, ptr %46, i32 0, i32 115
  %48 = load i64, ptr %47, align 8, !tbaa !36
  %49 = sub nsw i64 %48, %45
  store i64 %49, ptr %47, align 8, !tbaa !36
  store i32 0, ptr %3, align 4
  store i32 1, ptr %10, align 4
  br label %50

50:                                               ; preds = %27, %15
  call void @llvm.lifetime.end.p0(i64 8, ptr %9) #4
  call void @llvm.lifetime.end.p0(i64 8, ptr %8) #4
  call void @llvm.lifetime.end.p0(i64 8, ptr %7) #4
  call void @llvm.lifetime.end.p0(i64 4, ptr %6) #4
  %51 = load i32, ptr %3, align 4
  ret i32 %51
}