; Function Attrs: nounwind uwtable
define i32 @mriStep_SetOrder(ptr noundef %0, i32 noundef %1) local_unnamed_addr #0 {
  %3 = alloca ptr, align 8
  %4 = alloca i64, align 8
  %5 = alloca i64, align 8
  call void @llvm.lifetime.start.p0(i64 8, ptr nonnull %3) #5
  call void @llvm.lifetime.start.p0(i64 8, ptr nonnull %4) #5
  call void @llvm.lifetime.start.p0(i64 8, ptr nonnull %5) #5
  %6 = call i32 @mriStep_AccessStepMem(ptr noundef %0, ptr noundef nonnull @__func__.mriStep_SetOrder, ptr noundef nonnull %3) #5
  %.not = icmp eq i32 %6, 0
  br i1 %.not, label %7, label %28

7:                                                ; preds = %2
  %8 = icmp slt i32 %1, 1
  %9 = load ptr, ptr %3, align 8, !tbaa !8
  %10 = getelementptr inbounds nuw i8, ptr %9, i64 80
  %. = select i1 %8, i32 3, i32 %1
  store i32 %., ptr %10, align 8, !tbaa !22
  %11 = getelementptr inbounds nuw i8, ptr %9, i64 88
  store i32 0, ptr %11, align 8, !tbaa !10
  %12 = getelementptr inbounds nuw i8, ptr %9, i64 84
  store i32 0, ptr %12, align 4, !tbaa !23
  %13 = getelementptr inbounds nuw i8, ptr %9, i64 72
  %14 = load ptr, ptr %13, align 8, !tbaa !24
  call void @MRIStepCoupling_Space(ptr noundef %14, ptr noundef nonnull %5, ptr noundef nonnull %4) #5
  %15 = load ptr, ptr %3, align 8, !tbaa !8
  %16 = getelementptr inbounds nuw i8, ptr %15, i64 72
  %17 = load ptr, ptr %16, align 8, !tbaa !24
  call void @MRIStepCoupling_Free(ptr noundef %17) #5
  %18 = load ptr, ptr %3, align 8, !tbaa !8
  %19 = getelementptr inbounds nuw i8, ptr %18, i64 72
  store ptr null, ptr %19, align 8, !tbaa !24
  %20 = load i64, ptr %5, align 8, !tbaa !25
  %21 = getelementptr inbounds nuw i8, ptr %0, i64 880
  %22 = load i64, ptr %21, align 8, !tbaa !26
  %23 = sub nsw i64 %22, %20
  store i64 %23, ptr %21, align 8, !tbaa !26
  %24 = load i64, ptr %4, align 8, !tbaa !25
  %25 = getelementptr inbounds nuw i8, ptr %0, i64 872
  %26 = load i64, ptr %25, align 8, !tbaa !33
  %27 = sub nsw i64 %26, %24
  store i64 %27, ptr %25, align 8, !tbaa !33
  br label %28

28:                                               ; preds = %2, %7
  call void @llvm.lifetime.end.p0(i64 8, ptr nonnull %5) #5
  call void @llvm.lifetime.end.p0(i64 8, ptr nonnull %4) #5
  call void @llvm.lifetime.end.p0(i64 8, ptr nonnull %3) #5
  ret i32 %6
}